; Function Attrs: mustprogress nofree norecurse nosync nounwind willreturn memory(none) uwtable
define noundef i32 @_ZN6icu_7712PropNameData26findPropertyValueNameGroupEii(i32 noundef %0, i32 noundef %1) local_unnamed_addr #2 align 2 {
  %3 = icmp eq i32 %0, 0
  br i1 %3, label %.thread70, label %4

4:                                                ; preds = %2
  %5 = add nsw i32 %0, 1
  %6 = add i32 %0, 2
  %7 = sext i32 %5 to i64
  %8 = getelementptr inbounds [1494 x i32], ptr @_ZN6icu_7712PropNameData9valueMapsE, i64 0, i64 %7
  %9 = load i32, ptr %8, align 4, !tbaa !10
  %10 = icmp slt i32 %9, 16
  br i1 %10, label %.preheader, label %30

.preheader:                                       ; preds = %4
  %11 = icmp sgt i32 %9, 0
  br i1 %11, label %.lr.ph, label %.thread70

.lr.ph:                                           ; preds = %.preheader, %25
  %.03678 = phi i32 [ %27, %25 ], [ %6, %.preheader ]
  %.03977 = phi i32 [ %28, %25 ], [ %9, %.preheader ]
  %12 = sext i32 %.03678 to i64
  %13 = getelementptr inbounds [1494 x i32], ptr @_ZN6icu_7712PropNameData9valueMapsE, i64 0, i64 %12
  %14 = load i32, ptr %13, align 4, !tbaa !10
  %15 = add nsw i32 %.03678, 1
  %16 = sext i32 %15 to i64
  %17 = getelementptr inbounds [1494 x i32], ptr @_ZN6icu_7712PropNameData9valueMapsE, i64 0, i64 %16
  %18 = load i32, ptr %17, align 4, !tbaa !10
  %19 = add nsw i32 %.03678, 2
  %20 = icmp slt i32 %1, %14
  br i1 %20, label %.thread70, label %21

21:                                               ; preds = %.lr.ph
  %22 = icmp slt i32 %1, %18
  br i1 %22, label %.thread, label %25

.thread:                                          ; preds = %21
  %23 = add nsw i32 %19, %1
  %24 = sub i32 %23, %14
  br label %.thread70.sink.split

25:                                               ; preds = %21
  %26 = sub i32 %19, %14
  %27 = add i32 %26, %18
  %28 = add nsw i32 %.03977, -1
  %29 = icmp sgt i32 %.03977, 1
  br i1 %29, label %.lr.ph, label %.thread70, !llvm.loop !13

30:                                               ; preds = %4
  %31 = add i32 %0, -14
  %32 = add i32 %31, %9
  %33 = sext i32 %6 to i64
  %34 = sext i32 %32 to i64
  br label %35

35:                                               ; preds = %41, %30
  %indvars.iv = phi i64 [ %indvars.iv.next, %41 ], [ %33, %30 ]
  %36 = getelementptr inbounds [1494 x i32], ptr @_ZN6icu_7712PropNameData9valueMapsE, i64 0, i64 %indvars.iv
  %37 = load i32, ptr %36, align 4, !tbaa !10
  %38 = icmp slt i32 %1, %37
  br i1 %38, label %.thread70, label %39

39:                                               ; preds = %35
  %40 = icmp eq i32 %1, %37
  br i1 %40, label %43, label %41

41:                                               ; preds = %39
  %indvars.iv.next = add nsw i64 %indvars.iv, 1
  %42 = icmp slt i64 %indvars.iv.next, %34
  br i1 %42, label %35, label %.thread70, !llvm.loop !14

43:                                               ; preds = %39
  %44 = trunc nsw i64 %indvars.iv to i32
  %45 = add nsw i32 %9, -16
  %46 = add i32 %45, %44
  br label %.thread70.sink.split

.thread70.sink.split:                             ; preds = %.thread, %43
  %.sink = phi i32 [ %46, %43 ], [ %24, %.thread ]
  %47 = sext i32 %.sink to i64
  %48 = getelementptr inbounds [1494 x i32], ptr @_ZN6icu_7712PropNameData9valueMapsE, i64 0, i64 %47
  %49 = load i32, ptr %48, align 4, !tbaa !10
  br label %.thread70

.thread70:                                        ; preds = %41, %35, %.lr.ph, %25, %.thread70.sink.split, %.preheader, %2
  %.0 = phi i32 [ 0, %2 ], [ 0, %.preheader ], [ %49, %.thread70.sink.split ], [ 0, %25 ], [ 0, %.lr.ph ], [ 0, %35 ], [ 0, %41 ]
  ret i32 %.0
}